; Function Attrs: mustprogress nofree norecurse nosync nounwind memory(argmem: readwrite) uwtable
define void @_ZN5boost4urls6detail8url_impl11apply_queryENS0_15pct_string_viewEm(ptr nocapture noundef nonnull align 8 dereferenceable(171) %0, ptr nocapture noundef readonly byval(%"class.boost::urls::pct_string_view") align 8 %1, i64 noundef %2) local_unnamed_addr #3 align 2 {
  %4 = getelementptr inbounds nuw i8, ptr %0, i64 136
  store i64 %2, ptr %4, align 8, !tbaa !30
  %5 = getelementptr inbounds nuw i8, ptr %1, i64 8
  %6 = load i64, ptr %5, align 8, !tbaa !16
  %7 = getelementptr inbounds nuw i8, ptr %0, i64 8
  %8 = getelementptr inbounds i8, ptr %0, i64 56
  %9 = load i64, ptr %8, align 8, !tbaa !13
  %10 = getelementptr inbounds i8, ptr %0, i64 48
  %11 = load i64, ptr %10, align 8, !tbaa !13
  %.neg.i = add i64 %6, 1
  %12 = sub i64 %.neg.i, %9
  %13 = add i64 %12, %11
  br label %14

14:                                               ; preds = %14, %3
  %indvars.iv.i = phi i64 [ 5, %3 ], [ %indvars.iv.next.i, %14 ]
  %indvars.iv.next.i = add nuw nsw i64 %indvars.iv.i, 1
  %15 = getelementptr inbounds [8 x i64], ptr %7, i64 0, i64 %indvars.iv.next.i
  %16 = load i64, ptr %15, align 8, !tbaa !13
  %17 = add i64 %13, %16
  store i64 %17, ptr %15, align 8, !tbaa !13
  %exitcond.not.i = icmp eq i64 %indvars.iv.next.i, 7
  br i1 %exitcond.not.i, label %_ZN5boost4urls6detail8url_impl8set_sizeEim.exit, label %14, !llvm.loop !14

_ZN5boost4urls6detail8url_impl8set_sizeEim.exit:  ; preds = %14
  %18 = getelementptr inbounds nuw i8, ptr %1, i64 16
  %19 = load i64, ptr %18, align 8, !tbaa !18
  %20 = getelementptr inbounds i8, ptr %0, i64 112
  store i64 %19, ptr %20, align 8, !tbaa !13
  ret void
}